target datalayout = "e-m:e-p270:32:32-p271:32:32-p272:64:64-i64:64-i128:128-f80:128-n8:16:32:64-S128"
target triple = "x86_64-pc-linux-gnu"

%struct.mutex_prof_data_t = type { %struct.nstime_t, %struct.nstime_t, i64, i64, i32, %struct.atomic_u32_t, i64, ptr, i64 }
%struct.nstime_t = type { i64 }
%struct.atomic_u32_t = type { i32 }
%struct.atomic_zu_t = type { i64 }
%struct.ctl_arena_s = type { i32, i8, %struct.anon.1, i32, ptr, i64, i64, i64, i64, i64, ptr }
%struct.anon.1 = type { ptr, ptr }
%struct.ctl_arenas_s = type { i64, i32, %struct.anon.2, [4097 x ptr] }
%struct.anon.2 = type { ptr }
%struct.container_s = type { %struct.ctl_arena_s, %struct.ctl_arena_stats_s }
%struct.ctl_arena_stats_s = type { %struct.arena_stats_s, i64, i64, i64, i64, i64, i64, [36 x %struct.bin_stats_data_s], [196 x %struct.arena_stats_large_s], [199 x %struct.pac_estats_s], %struct.hpa_shard_stats_s, %struct.sec_stats_s }
%struct.arena_stats_s = type { i64, i64, i64, i64, i64, i64, %struct.atomic_zu_t, i64, i64, i64, i64, i64, i64, %struct.pa_shard_stats_s, i64, i64, [12 x %struct.mutex_prof_data_t], [196 x %struct.arena_stats_large_s], %struct.nstime_t }
%struct.pa_shard_stats_s = type { i64, %struct.pac_stats_s }
%struct.pac_stats_s = type { %struct.pac_decay_stats_s, %struct.pac_decay_stats_s, i64, %struct.atomic_zu_t, %struct.atomic_zu_t }
%struct.pac_decay_stats_s = type { %struct.locked_u64_s, %struct.locked_u64_s, %struct.locked_u64_s }
%struct.locked_u64_s = type { %struct.atomic_u64_t }
%struct.atomic_u64_t = type { i64 }
%struct.bin_stats_data_s = type { %struct.bin_stats_s, %struct.mutex_prof_data_t }
%struct.bin_stats_s = type { i64, i64, i64, i64, i64, i64, i64, i64, i64, i64, i64, i64, i64, i64 }
%struct.arena_stats_large_s = type { %struct.locked_u64_s, %struct.locked_u64_s, %struct.locked_u64_s, %struct.locked_u64_s, %struct.locked_u64_s, i64 }
%struct.pac_estats_s = type { i64, i64, i64, i64, i64, i64 }
%struct.hpa_shard_stats_s = type { %struct.psset_stats_s, %struct.hpa_shard_nonderived_stats_s }
%struct.psset_stats_s = type { [64 x [2 x %struct.psset_bin_stats_s]], [2 x %struct.psset_bin_stats_s], [2 x %struct.psset_bin_stats_s] }
%struct.psset_bin_stats_s = type { i64, i64, i64 }
%struct.hpa_shard_nonderived_stats_s = type { i64, i64, i64, i64 }
%struct.sec_stats_s = type { i64 }

@ctl_arenas = internal global ptr null, align 8

; Function Attrs: nounwind uwtable
define internal i32 @arenas_i2a_impl(i64 noundef %0, i1 noundef zeroext %1, i1 noundef zeroext %2) #0 {
  %4 = alloca i64, align 8
  %5 = alloca i8, align 1
  %6 = alloca i8, align 1
  %7 = alloca i32, align 4
  store i64 %0, ptr %4, align 8, !tbaa !13
  %8 = zext i1 %1 to i8
  store i8 %8, ptr %5, align 1, !tbaa !15
  %9 = zext i1 %2 to i8
  store i8 %9, ptr %6, align 1, !tbaa !15
  call void @llvm.lifetime.start.p0(i64 4, ptr %7) #13
  %10 = load i64, ptr %4, align 8, !tbaa !13
  switch i64 %10, label %13 [
    i64 4096, label %11
    i64 4097, label %12
  ]

11:                                               ; preds = %3
  store i32 0, ptr %7, align 4, !tbaa !19
  br label %44

12:                                               ; preds = %3
  store i32 1, ptr %7, align 4, !tbaa !19
  br label %44

13:                                               ; preds = %3
  %14 = load i8, ptr %5, align 1, !tbaa !15, !range !17, !noundef !18
  %15 = trunc i8 %14 to i1
  br i1 %15, label %16, label %24

16:                                               ; preds = %13
  %17 = load i64, ptr %4, align 8, !tbaa !13
  %18 = load ptr, ptr @ctl_arenas, align 8, !tbaa !29
  %19 = getelementptr inbounds nuw %struct.ctl_arenas_s, ptr %18, i32 0, i32 1
  %20 = load i32, ptr %19, align 8, !tbaa !39
  %21 = zext i32 %20 to i64
  %22 = icmp eq i64 %17, %21
  br i1 %22, label %23, label %24

23:                                               ; preds = %16
  store i32 0, ptr %7, align 4, !tbaa !19
  br label %43

24:                                               ; preds = %16, %13
  %25 = load i8, ptr %6, align 1, !tbaa !15, !range !17, !noundef !18
  %26 = trunc i8 %25 to i1
  br i1 %26, label %27, label %35

27:                                               ; preds = %24
  %28 = load i64, ptr %4, align 8, !tbaa !13
  %29 = load ptr, ptr @ctl_arenas, align 8, !tbaa !29
  %30 = getelementptr inbounds nuw %struct.ctl_arenas_s, ptr %29, i32 0, i32 1
  %31 = load i32, ptr %30, align 8, !tbaa !39
  %32 = zext i32 %31 to i64
  %33 = icmp uge i64 %28, %32
  br i1 %33, label %34, label %35

34:                                               ; preds = %27
  store i32 -1, ptr %7, align 4, !tbaa !19
  br label %42

35:                                               ; preds = %27, %24
  br label %36

36:                                               ; preds = %35
  br label %37

37:                                               ; preds = %36
  br label %38

38:                                               ; preds = %37
  %39 = load i64, ptr %4, align 8, !tbaa !13
  %40 = trunc i64 %39 to i32
  %41 = add i32 %40, 2
  store i32 %41, ptr %7, align 4, !tbaa !19
  br label %42

42:                                               ; preds = %38, %34
  br label %43

43:                                               ; preds = %42, %23
  br label %44

44:                                               ; preds = %43, %12, %11
  %45 = load i32, ptr %7, align 4, !tbaa !19
  call void @llvm.lifetime.end.p0(i64 4, ptr %7) #13
  ret i32 %45
}

; Function Attrs: alwaysinline nounwind uwtable
define internal ptr @tsd_tsdn(ptr noundef %0) #2 {
  %2 = alloca ptr, align 8
  store ptr %0, ptr %2, align 8, !tbaa !3
  %3 = load ptr, ptr %2, align 8, !tbaa !3
  ret ptr %3
}

; Function Attrs: nounwind uwtable
define internal ptr @arenas_i_impl(ptr noundef %0, i64 noundef %1, i1 noundef zeroext %2, i1 noundef zeroext %3) #0 {
  %5 = alloca ptr, align 8
  %6 = alloca ptr, align 8
  %7 = alloca i64, align 8
  %8 = alloca i8, align 1
  %9 = alloca i8, align 1
  %10 = alloca ptr, align 8
  %11 = alloca ptr, align 8
  %12 = alloca i32, align 4
  store ptr %0, ptr %6, align 8, !tbaa !3
  store i64 %1, ptr %7, align 8, !tbaa !13
  %13 = zext i1 %2 to i8
  store i8 %13, ptr %8, align 1, !tbaa !15
  %14 = zext i1 %3 to i8
  store i8 %14, ptr %9, align 1, !tbaa !15
  call void @llvm.lifetime.start.p0(i64 8, ptr %10) #13
  br label %15

15:                                               ; preds = %4
  br label %16

16:                                               ; preds = %15
  br label %17

17:                                               ; preds = %16
  %18 = load ptr, ptr @ctl_arenas, align 8, !tbaa !29
  %19 = getelementptr inbounds nuw %struct.ctl_arenas_s, ptr %18, i32 0, i32 3
  %20 = load i64, ptr %7, align 8, !tbaa !13
  %21 = load i8, ptr %8, align 1, !tbaa !15, !range !17, !noundef !18
  %22 = trunc i8 %21 to i1
  %23 = call i32 @arenas_i2a_impl(i64 noundef %20, i1 noundef zeroext %22, i1 noundef zeroext false)
  %24 = zext i32 %23 to i64
  %25 = getelementptr inbounds nuw [4097 x ptr], ptr %19, i64 0, i64 %24
  %26 = load ptr, ptr %25, align 8, !tbaa !33
  store ptr %26, ptr %10, align 8, !tbaa !33
  %27 = load i8, ptr %9, align 1, !tbaa !15, !range !17, !noundef !18
  %28 = trunc i8 %27 to i1
  br i1 %28, label %29, label %63

29:                                               ; preds = %17
  %30 = load ptr, ptr %10, align 8, !tbaa !33
  %31 = icmp eq ptr %30, null
  br i1 %31, label %32, label %63

32:                                               ; preds = %29
  call void @llvm.lifetime.start.p0(i64 8, ptr %11) #13
  %33 = load ptr, ptr %6, align 8, !tbaa !3
  %34 = call ptr @tsd_tsdn(ptr noundef %33)
  %35 = call ptr @duckdb_je_b0get()
  %36 = call ptr @duckdb_je_base_alloc(ptr noundef %34, ptr noundef %35, i64 noundef 39024, i64 noundef 16)
  store ptr %36, ptr %11, align 8, !tbaa !55
  %37 = load ptr, ptr %11, align 8, !tbaa !55
  %38 = icmp eq ptr %37, null
  br i1 %38, label %39, label %40

39:                                               ; preds = %32
  store ptr null, ptr %5, align 8
  store i32 1, ptr %12, align 4
  br label %47

40:                                               ; preds = %32
  %41 = load ptr, ptr %11, align 8, !tbaa !55
  %42 = getelementptr inbounds nuw %struct.container_s, ptr %41, i32 0, i32 0
  store ptr %42, ptr %10, align 8, !tbaa !33
  %43 = load ptr, ptr %11, align 8, !tbaa !55
  %44 = getelementptr inbounds nuw %struct.container_s, ptr %43, i32 0, i32 1
  %45 = load ptr, ptr %10, align 8, !tbaa !33
  %46 = getelementptr inbounds nuw %struct.ctl_arena_s, ptr %45, i32 0, i32 10
  store ptr %44, ptr %46, align 8, !tbaa !57
  store i32 0, ptr %12, align 4
  br label %47

47:                                               ; preds = %40, %39
  call void @llvm.lifetime.end.p0(i64 8, ptr %11) #13
  %48 = load i32, ptr %12, align 4
  switch i32 %48, label %68 [
    i32 0, label %49
  ]

49:                                               ; preds = %47
  %50 = load i64, ptr %7, align 8, !tbaa !13
  %51 = trunc i64 %50 to i32
  %52 = load ptr, ptr %10, align 8, !tbaa !33
  %53 = getelementptr inbounds nuw %struct.ctl_arena_s, ptr %52, i32 0, i32 0
  store i32 %51, ptr %53, align 8, !tbaa !58
  %54 = load ptr, ptr %10, align 8, !tbaa !33
  %55 = load ptr, ptr @ctl_arenas, align 8, !tbaa !29
  %56 = getelementptr inbounds nuw %struct.ctl_arenas_s, ptr %55, i32 0, i32 3
  %57 = load i64, ptr %7, align 8, !tbaa !13
  %58 = load i8, ptr %8, align 1, !tbaa !15, !range !17, !noundef !18
  %59 = trunc i8 %58 to i1
  %60 = call i32 @arenas_i2a_impl(i64 noundef %57, i1 noundef zeroext %59, i1 noundef zeroext false)
  %61 = zext i32 %60 to i64
  %62 = getelementptr inbounds nuw [4097 x ptr], ptr %56, i64 0, i64 %61
  store ptr %54, ptr %62, align 8, !tbaa !33
  br label %63

63:                                               ; preds = %49, %29, %17
  br label %64

64:                                               ; preds = %63
  br label %65

65:                                               ; preds = %64
  br label %66

66:                                               ; preds = %65
  %67 = load ptr, ptr %10, align 8, !tbaa !33
  store ptr %67, ptr %5, align 8
  store i32 1, ptr %12, align 4
  br label %68

68:                                               ; preds = %66, %47
  call void @llvm.lifetime.end.p0(i64 8, ptr %10) #13
  %69 = load ptr, ptr %5, align 8
  ret ptr %69
}

; Function Attrs: nounwind uwtable
define internal i32 @ctl_arena_init(ptr noundef %0, ptr noundef %1) #0 {
  %3 = alloca i32, align 4
  %4 = alloca ptr, align 8
  %5 = alloca ptr, align 8
  %6 = alloca i32, align 4
  %7 = alloca ptr, align 8
  %8 = alloca i32, align 4
  store ptr %0, ptr %4, align 8, !tbaa !3
  store ptr %1, ptr %5, align 8, !tbaa !253
  call void @llvm.lifetime.start.p0(i64 4, ptr %6) #13
  call void @llvm.lifetime.start.p0(i64 8, ptr %7) #13
  %9 = load ptr, ptr @ctl_arenas, align 8, !tbaa !29
  %10 = getelementptr inbounds nuw %struct.ctl_arenas_s, ptr %9, i32 0, i32 2
  %11 = getelementptr inbounds nuw %struct.anon.2, ptr %10, i32 0, i32 0
  %12 = load ptr, ptr %11, align 8, !tbaa !42
  %13 = icmp eq ptr %12, null
  br i1 %13, label %14, label %15

14:                                               ; preds = %2
  br label %23

15:                                               ; preds = %2
  %16 = load ptr, ptr @ctl_arenas, align 8, !tbaa !29
  %17 = getelementptr inbounds nuw %struct.ctl_arenas_s, ptr %16, i32 0, i32 2
  %18 = getelementptr inbounds nuw %struct.anon.2, ptr %17, i32 0, i32 0
  %19 = load ptr, ptr %18, align 8, !tbaa !42
  %20 = getelementptr inbounds nuw %struct.ctl_arena_s, ptr %19, i32 0, i32 2
  %21 = getelementptr inbounds nuw %struct.anon.1, ptr %20, i32 0, i32 1
  %22 = load ptr, ptr %21, align 8, !tbaa !229
  br label %23

23:                                               ; preds = %15, %14
  %24 = phi ptr [ null, %14 ], [ %22, %15 ]
  store ptr %24, ptr %7, align 8, !tbaa !33
  %25 = icmp ne ptr %24, null
  br i1 %25, label %26, label %122

26:                                               ; preds = %23
  br label %27

27:                                               ; preds = %26
  %28 = load ptr, ptr @ctl_arenas, align 8, !tbaa !29
  %29 = getelementptr inbounds nuw %struct.ctl_arenas_s, ptr %28, i32 0, i32 2
  %30 = getelementptr inbounds nuw %struct.anon.2, ptr %29, i32 0, i32 0
  %31 = load ptr, ptr %30, align 8, !tbaa !42
  %32 = load ptr, ptr %7, align 8, !tbaa !33
  %33 = icmp eq ptr %31, %32
  br i1 %33, label %34, label %45

34:                                               ; preds = %27
  %35 = load ptr, ptr @ctl_arenas, align 8, !tbaa !29
  %36 = getelementptr inbounds nuw %struct.ctl_arenas_s, ptr %35, i32 0, i32 2
  %37 = getelementptr inbounds nuw %struct.anon.2, ptr %36, i32 0, i32 0
  %38 = load ptr, ptr %37, align 8, !tbaa !42
  %39 = getelementptr inbounds nuw %struct.ctl_arena_s, ptr %38, i32 0, i32 2
  %40 = getelementptr inbounds nuw %struct.anon.1, ptr %39, i32 0, i32 0
  %41 = load ptr, ptr %40, align 8, !tbaa !228
  %42 = load ptr, ptr @ctl_arenas, align 8, !tbaa !29
  %43 = getelementptr inbounds nuw %struct.ctl_arenas_s, ptr %42, i32 0, i32 2
  %44 = getelementptr inbounds nuw %struct.anon.2, ptr %43, i32 0, i32 0
  store ptr %41, ptr %44, align 8, !tbaa !42
  br label %45

45:                                               ; preds = %34, %27
  %46 = load ptr, ptr @ctl_arenas, align 8, !tbaa !29
  %47 = getelementptr inbounds nuw %struct.ctl_arenas_s, ptr %46, i32 0, i32 2
  %48 = getelementptr inbounds nuw %struct.anon.2, ptr %47, i32 0, i32 0
  %49 = load ptr, ptr %48, align 8, !tbaa !42
  %50 = load ptr, ptr %7, align 8, !tbaa !33
  %51 = icmp ne ptr %49, %50
  br i1 %51, label %52, label %109

52:                                               ; preds = %45
  br label %53

53:                                               ; preds = %52
  %54 = load ptr, ptr %7, align 8, !tbaa !33
  %55 = getelementptr inbounds nuw %struct.ctl_arena_s, ptr %54, i32 0, i32 2
  %56 = getelementptr inbounds nuw %struct.anon.1, ptr %55, i32 0, i32 0
  %57 = load ptr, ptr %56, align 8, !tbaa !228
  %58 = getelementptr inbounds nuw %struct.ctl_arena_s, ptr %57, i32 0, i32 2
  %59 = getelementptr inbounds nuw %struct.anon.1, ptr %58, i32 0, i32 1
  %60 = load ptr, ptr %59, align 8, !tbaa !229
  %61 = load ptr, ptr %7, align 8, !tbaa !33
  %62 = getelementptr inbounds nuw %struct.ctl_arena_s, ptr %61, i32 0, i32 2
  %63 = getelementptr inbounds nuw %struct.anon.1, ptr %62, i32 0, i32 1
  %64 = load ptr, ptr %63, align 8, !tbaa !229
  %65 = getelementptr inbounds nuw %struct.ctl_arena_s, ptr %64, i32 0, i32 2
  %66 = getelementptr inbounds nuw %struct.anon.1, ptr %65, i32 0, i32 0
  store ptr %60, ptr %66, align 8, !tbaa !228
  %67 = load ptr, ptr %7, align 8, !tbaa !33
  %68 = getelementptr inbounds nuw %struct.ctl_arena_s, ptr %67, i32 0, i32 2
  %69 = getelementptr inbounds nuw %struct.anon.1, ptr %68, i32 0, i32 1
  %70 = load ptr, ptr %69, align 8, !tbaa !229
  %71 = load ptr, ptr %7, align 8, !tbaa !33
  %72 = getelementptr inbounds nuw %struct.ctl_arena_s, ptr %71, i32 0, i32 2
  %73 = getelementptr inbounds nuw %struct.anon.1, ptr %72, i32 0, i32 0
  %74 = load ptr, ptr %73, align 8, !tbaa !228
  %75 = getelementptr inbounds nuw %struct.ctl_arena_s, ptr %74, i32 0, i32 2
  %76 = getelementptr inbounds nuw %struct.anon.1, ptr %75, i32 0, i32 1
  store ptr %70, ptr %76, align 8, !tbaa !229
  %77 = load ptr, ptr %7, align 8, !tbaa !33
  %78 = getelementptr inbounds nuw %struct.ctl_arena_s, ptr %77, i32 0, i32 2
  %79 = getelementptr inbounds nuw %struct.anon.1, ptr %78, i32 0, i32 1
  %80 = load ptr, ptr %79, align 8, !tbaa !229
  %81 = getelementptr inbounds nuw %struct.ctl_arena_s, ptr %80, i32 0, i32 2
  %82 = getelementptr inbounds nuw %struct.anon.1, ptr %81, i32 0, i32 0
  %83 = load ptr, ptr %82, align 8, !tbaa !228
  %84 = load ptr, ptr %7, align 8, !tbaa !33
  %85 = getelementptr inbounds nuw %struct.ctl_arena_s, ptr %84, i32 0, i32 2
  %86 = getelementptr inbounds nuw %struct.anon.1, ptr %85, i32 0, i32 1
  store ptr %83, ptr %86, align 8, !tbaa !229
  %87 = load ptr, ptr %7, align 8, !tbaa !33
  %88 = getelementptr inbounds nuw %struct.ctl_arena_s, ptr %87, i32 0, i32 2
  %89 = getelementptr inbounds nuw %struct.anon.1, ptr %88, i32 0, i32 0
  %90 = load ptr, ptr %89, align 8, !tbaa !228
  %91 = load ptr, ptr %7, align 8, !tbaa !33
  %92 = getelementptr inbounds nuw %struct.ctl_arena_s, ptr %91, i32 0, i32 2
  %93 = getelementptr inbounds nuw %struct.anon.1, ptr %92, i32 0, i32 0
  %94 = load ptr, ptr %93, align 8, !tbaa !228
  %95 = getelementptr inbounds nuw %struct.ctl_arena_s, ptr %94, i32 0, i32 2
  %96 = getelementptr inbounds nuw %struct.anon.1, ptr %95, i32 0, i32 1
  %97 = load ptr, ptr %96, align 8, !tbaa !229
  %98 = getelementptr inbounds nuw %struct.ctl_arena_s, ptr %97, i32 0, i32 2
  %99 = getelementptr inbounds nuw %struct.anon.1, ptr %98, i32 0, i32 0
  store ptr %90, ptr %99, align 8, !tbaa !228
  %100 = load ptr, ptr %7, align 8, !tbaa !33
  %101 = load ptr, ptr %7, align 8, !tbaa !33
  %102 = getelementptr inbounds nuw %struct.ctl_arena_s, ptr %101, i32 0, i32 2
  %103 = getelementptr inbounds nuw %struct.anon.1, ptr %102, i32 0, i32 1
  %104 = load ptr, ptr %103, align 8, !tbaa !229
  %105 = getelementptr inbounds nuw %struct.ctl_arena_s, ptr %104, i32 0, i32 2
  %106 = getelementptr inbounds nuw %struct.anon.1, ptr %105, i32 0, i32 0
  store ptr %100, ptr %106, align 8, !tbaa !228
  br label %107

107:                                              ; preds = %53
  br label %108

108:                                              ; preds = %107
  br label %116

109:                                              ; preds = %45
  br label %110

110:                                              ; preds = %109
  %111 = load ptr, ptr @ctl_arenas, align 8, !tbaa !29
  %112 = getelementptr inbounds nuw %struct.ctl_arenas_s, ptr %111, i32 0, i32 2
  %113 = getelementptr inbounds nuw %struct.anon.2, ptr %112, i32 0, i32 0
  store ptr null, ptr %113, align 8, !tbaa !42
  br label %114

114:                                              ; preds = %110
  br label %115

115:                                              ; preds = %114
  br label %116

116:                                              ; preds = %115, %108
  br label %117

117:                                              ; preds = %116
  br label %118

118:                                              ; preds = %117
  %119 = load ptr, ptr %7, align 8, !tbaa !33
  %120 = getelementptr inbounds nuw %struct.ctl_arena_s, ptr %119, i32 0, i32 0
  %121 = load i32, ptr %120, align 8, !tbaa !58
  store i32 %121, ptr %6, align 4, !tbaa !19
  br label %126

122:                                              ; preds = %23
  %123 = load ptr, ptr @ctl_arenas, align 8, !tbaa !29
  %124 = getelementptr inbounds nuw %struct.ctl_arenas_s, ptr %123, i32 0, i32 1
  %125 = load i32, ptr %124, align 8, !tbaa !39
  store i32 %125, ptr %6, align 4, !tbaa !19
  br label %126

126:                                              ; preds = %122, %118
  %127 = load ptr, ptr %4, align 8, !tbaa !3
  %128 = load i32, ptr %6, align 4, !tbaa !19
  %129 = zext i32 %128 to i64
  %130 = call ptr @arenas_i_impl(ptr noundef %127, i64 noundef %129, i1 noundef zeroext false, i1 noundef zeroext true)
  %131 = icmp eq ptr %130, null
  br i1 %131, label %132, label %133

132:                                              ; preds = %126
  store i32 -1, ptr %3, align 4
  store i32 1, ptr %8, align 4
  br label %154

133:                                              ; preds = %126
  %134 = load ptr, ptr %4, align 8, !tbaa !3
  %135 = call ptr @tsd_tsdn(ptr noundef %134)
  %136 = load i32, ptr %6, align 4, !tbaa !19
  %137 = load ptr, ptr %5, align 8, !tbaa !253
  %138 = call ptr @duckdb_je_arena_init(ptr noundef %135, i32 noundef %136, ptr noundef %137)
  %139 = icmp eq ptr %138, null
  br i1 %139, label %140, label %141

140:                                              ; preds = %133
  store i32 -1, ptr %3, align 4
  store i32 1, ptr %8, align 4
  br label %154

141:                                              ; preds = %133
  %142 = load i32, ptr %6, align 4, !tbaa !19
  %143 = load ptr, ptr @ctl_arenas, align 8, !tbaa !29
  %144 = getelementptr inbounds nuw %struct.ctl_arenas_s, ptr %143, i32 0, i32 1
  %145 = load i32, ptr %144, align 8, !tbaa !39
  %146 = icmp eq i32 %142, %145
  br i1 %146, label %147, label %152

147:                                              ; preds = %141
  %148 = load ptr, ptr @ctl_arenas, align 8, !tbaa !29
  %149 = getelementptr inbounds nuw %struct.ctl_arenas_s, ptr %148, i32 0, i32 1
  %150 = load i32, ptr %149, align 8, !tbaa !39
  %151 = add i32 %150, 1
  store i32 %151, ptr %149, align 8, !tbaa !39
  br label %152

152:                                              ; preds = %147, %141
  %153 = load i32, ptr %6, align 4, !tbaa !19
  store i32 %153, ptr %3, align 4
  store i32 1, ptr %8, align 4
  br label %154

154:                                              ; preds = %152, %140, %132
  call void @llvm.lifetime.end.p0(i64 8, ptr %7) #13
  call void @llvm.lifetime.end.p0(i64 4, ptr %6) #13
  %155 = load i32, ptr %3, align 4
  ret i32 %155
}